; Function Attrs: nounwind uwtable
define internal i32 @pmix_gds_close() #0 {
  %1 = load i8, ptr getelementptr inbounds nuw (i8, ptr @pmix_gds_globals, i64 272), align 8, !tbaa !3, !range !31, !noundef !32
  %2 = trunc nuw i8 %1 to i1
  br i1 %2, label %3, label %52

3:                                                ; preds = %0
  store i8 0, ptr getelementptr inbounds nuw (i8, ptr @pmix_gds_globals, i64 272), align 8, !tbaa !3
  store i8 0, ptr getelementptr inbounds nuw (i8, ptr @pmix_gds_globals, i64 273), align 1, !tbaa !33
  %4 = load ptr, ptr getelementptr inbounds nuw (i8, ptr @pmix_gds_globals, i64 240), align 8, !tbaa !34
  %.not29 = icmp eq ptr %4, getelementptr inbounds nuw (i8, ptr @pmix_gds_globals, i64 120)
  br i1 %.not29, label %._crit_edge, label %.lr.ph

.lr.ph:                                           ; preds = %3, %40
  %.01530 = phi ptr [ %.01431, %40 ], [ %4, %3 ]
  %.01431.in = getelementptr inbounds nuw i8, ptr %.01530, i64 120
  %.01431 = load ptr, ptr %.01431.in, align 8, !tbaa !35
  %5 = getelementptr inbounds nuw i8, ptr %.01530, i64 128
  %6 = load ptr, ptr %5, align 8, !tbaa !36
  %7 = getelementptr inbounds nuw i8, ptr %6, i64 120
  store volatile ptr %.01431, ptr %7, align 8, !tbaa !35
  %8 = getelementptr inbounds nuw i8, ptr %.01431, i64 128
  store volatile ptr %6, ptr %8, align 8, !tbaa !36
  %9 = load volatile i64, ptr getelementptr inbounds nuw (i8, ptr @pmix_gds_globals, i64 264), align 8, !tbaa !37
  %10 = add i64 %9, -1
  store volatile i64 %10, ptr getelementptr inbounds nuw (i8, ptr @pmix_gds_globals, i64 264), align 8, !tbaa !37
  %11 = getelementptr inbounds nuw i8, ptr %.01530, i64 152
  %12 = load ptr, ptr %11, align 8, !tbaa !38
  %13 = getelementptr inbounds nuw i8, ptr %12, i64 24
  %14 = load ptr, ptr %13, align 8, !tbaa !41
  %.not19 = icmp eq ptr %14, null
  br i1 %.not19, label %16, label %15

15:                                               ; preds = %.lr.ph
  tail call void %14() #8
  br label %16

16:                                               ; preds = %.lr.ph, %15
  %17 = tail call i32 @pthread_mutex_lock(ptr noundef %.01530) #8
  %18 = icmp eq i32 %17, 35
  br i1 %18, label %19, label %pmix_obj_update.exit

19:                                               ; preds = %16
  %20 = tail call ptr @__errno_location() #9
  store i32 35, ptr %20, align 4, !tbaa !19
  tail call void @perror(ptr noundef nonnull @.str.4) #10
  tail call void @abort() #11
  unreachable

pmix_obj_update.exit:                             ; preds = %16
  %21 = getelementptr inbounds nuw i8, ptr %.01530, i64 48
  %22 = load i32, ptr %21, align 8, !tbaa !23
  %23 = add nsw i32 %22, -1
  store i32 %23, ptr %21, align 8, !tbaa !23
  %24 = tail call i32 @pthread_mutex_unlock(ptr noundef %.01530) #8
  %25 = icmp eq i32 %23, 0
  br i1 %25, label %26, label %40

26:                                               ; preds = %pmix_obj_update.exit
  %27 = getelementptr inbounds nuw i8, ptr %.01530, i64 40
  %28 = load ptr, ptr %27, align 8, !tbaa !22
  %29 = getelementptr inbounds nuw i8, ptr %28, i64 48
  %30 = load ptr, ptr %29, align 8, !tbaa !43
  %31 = load ptr, ptr %30, align 8, !tbaa !25
  %.not6.i = icmp eq ptr %31, null
  br i1 %.not6.i, label %pmix_obj_run_destructors.exit, label %.lr.ph.i

.lr.ph.i:                                         ; preds = %26, %.lr.ph.i
  %32 = phi ptr [ %34, %.lr.ph.i ], [ %31, %26 ]
  %.07.i = phi ptr [ %33, %.lr.ph.i ], [ %30, %26 ]
  tail call void %32(ptr noundef %.01530) #8
  %33 = getelementptr inbounds nuw i8, ptr %.07.i, i64 8
  %34 = load ptr, ptr %33, align 8, !tbaa !25
  %.not.i = icmp eq ptr %34, null
  br i1 %.not.i, label %pmix_obj_run_destructors.exit, label %.lr.ph.i, !llvm.loop !44

pmix_obj_run_destructors.exit:                    ; preds = %.lr.ph.i, %26
  %35 = getelementptr inbounds nuw i8, ptr %.01530, i64 96
  %36 = load ptr, ptr %35, align 8, !tbaa !45
  %.not20 = icmp eq ptr %36, null
  br i1 %.not20, label %39, label %37

37:                                               ; preds = %pmix_obj_run_destructors.exit
  %38 = getelementptr inbounds nuw i8, ptr %.01530, i64 56
  tail call void %36(ptr noundef nonnull %38, ptr noundef nonnull %.01530) #8
  br label %40

39:                                               ; preds = %pmix_obj_run_destructors.exit
  tail call void @free(ptr noundef nonnull %.01530) #8
  br label %40

40:                                               ; preds = %37, %39, %pmix_obj_update.exit
  %.not = icmp eq ptr %.01431, getelementptr inbounds nuw (i8, ptr @pmix_gds_globals, i64 120)
  br i1 %.not, label %._crit_edge, label %.lr.ph, !llvm.loop !46

._crit_edge:                                      ; preds = %40, %3
  %41 = load ptr, ptr getelementptr inbounds nuw (i8, ptr @pmix_gds_globals, i64 40), align 8, !tbaa !22
  %42 = getelementptr inbounds nuw i8, ptr %41, i64 48
  %43 = load ptr, ptr %42, align 8, !tbaa !43
  %44 = load ptr, ptr %43, align 8, !tbaa !25
  %.not6.i22 = icmp eq ptr %44, null
  br i1 %.not6.i22, label %pmix_obj_run_destructors.exit26, label %.lr.ph.i23

.lr.ph.i23:                                       ; preds = %._crit_edge, %.lr.ph.i23
  %45 = phi ptr [ %47, %.lr.ph.i23 ], [ %44, %._crit_edge ]
  %.07.i24 = phi ptr [ %46, %.lr.ph.i23 ], [ %43, %._crit_edge ]
  tail call void %45(ptr noundef nonnull @pmix_gds_globals) #8
  %46 = getelementptr inbounds nuw i8, ptr %.07.i24, i64 8
  %47 = load ptr, ptr %46, align 8, !tbaa !25
  %.not.i25 = icmp eq ptr %47, null
  br i1 %.not.i25, label %pmix_obj_run_destructors.exit26, label %.lr.ph.i23, !llvm.loop !44

pmix_obj_run_destructors.exit26:                  ; preds = %.lr.ph.i23, %._crit_edge
  %48 = load ptr, ptr getelementptr inbounds nuw (i8, ptr @pmix_gds_globals, i64 280), align 8, !tbaa !18
  %.not18 = icmp eq ptr %48, null
  br i1 %.not18, label %50, label %49

49:                                               ; preds = %pmix_obj_run_destructors.exit26
  tail call void @free(ptr noundef nonnull %48) #8
  br label %50

50:                                               ; preds = %49, %pmix_obj_run_destructors.exit26
  %51 = tail call i32 @pmix_mca_base_framework_components_close(ptr noundef nonnull @pmix_gds_base_framework, ptr noundef null) #8
  br label %52

52:                                               ; preds = %0, %50
  %.0 = phi i32 [ %51, %50 ], [ 0, %0 ]
  ret i32 %.0
}